(dp0
VWeather4
p1
(VWeather
p2
I2
I2
tp3
sVClock1
p4
(VClock
p5
I0
I1
tp6
sVUnitconverter2
p7
(VUnitconverter
p8
I1
I0
tp9
sVClock5
p10
(VClock
p11
I2
I1
tp12
sVCurrency3
p13
(VCurrency
p14
I0
I0
tp15
s.