(dp0
VWeather4
p1
(dp2
S'language'
p3
Vtr
p4
sS'url'
p5
S'default'
p6
sS'Y'
p7
I2
sS'X'
p8
I2
sS'type'
p9
S'c'
p10
sS'dimension'
p11
(tssVClock1
p12
(dp13
S'Color'
p14
Vred
p15
sS'width'
p16
S'100%'
p17
sg7
I1
sg8
I0
sS'height'
p18
S'150'
p19
ssVUnitconverter2
p20
(dp21
g7
I0
sg8
I1
sS'unit'
p22
S'length'
p23
sg11
(tsS'backgroundColor'
p24
S'red'
p25
ssVClock5
p26
(dp27
g14
g25
sg16
g17
sg7
I1
sg8
I2
sg18
g19
ssVCurrency3
p28
(dp29
g7
I0
sS'to'
p30
VUSD
p31
sS'from'
p32
VEUR
p33
sg8
I0
sS'size'
p34
I300
ss.