(dp0
S'Map'
p1
S'This Component Shows Map'
p2
sS'Weather'
p3
S'This Component Shows Current Weather'
p4
sS'Clock'
p5
S'This Component Shows Current Time'
p6
sS'Livescore'
p7
S'This Component Shows livescores'
p8
sS'Currency'
p9
S'This Component Shows Current Rates'
p10
sS'Unitconverter'
p11
S'This Component Converts units'
p12
s.